; Function Attrs: mustprogress uwtable
define internal fastcc void @_ZL19deleteCurrencyNamesP18CurrencyNameStructi(ptr noundef %0, i32 noundef %1) unnamed_addr #1 {
  %3 = icmp sgt i32 %1, 0
  br i1 %3, label %.lr.ph.preheader, label %._crit_edge

.lr.ph.preheader:                                 ; preds = %2
  %wide.trip.count = zext nneg i32 %1 to i64
  br label %.lr.ph

._crit_edge:                                      ; preds = %11, %2
  tail call void @uprv_free_77(ptr noundef %0)
  ret void

.lr.ph:                                           ; preds = %.lr.ph.preheader, %11
  %indvars.iv = phi i64 [ 0, %.lr.ph.preheader ], [ %indvars.iv.next, %11 ]
  %4 = getelementptr inbounds nuw %struct.CurrencyNameStruct, ptr %0, i64 %indvars.iv
  %5 = getelementptr inbounds nuw i8, ptr %4, i64 20
  %6 = load i32, ptr %5, align 4, !tbaa !73
  %7 = and i32 %6, 1
  %.not = icmp eq i32 %7, 0
  br i1 %.not, label %11, label %8

8:                                                ; preds = %.lr.ph
  %9 = getelementptr inbounds nuw i8, ptr %4, i64 8
  %10 = load ptr, ptr %9, align 8, !tbaa !74
  tail call void @uprv_free_77(ptr noundef %10)
  br label %11

11:                                               ; preds = %.lr.ph, %8
  %indvars.iv.next = add nuw nsw i64 %indvars.iv, 1
  %exitcond.not = icmp eq i64 %indvars.iv.next, %wide.trip.count
  br i1 %exitcond.not, label %._crit_edge, label %.lr.ph, !llvm.loop !75
}